target datalayout = "e-m:e-p270:32:32-p271:32:32-p272:64:64-i64:64-i128:128-f80:128-n8:16:32:64-S128"
target triple = "x86_64-pc-linux-gnu"

%struct.strbuf = type { i64, i64, ptr }
%struct.git_hash_algo = type { ptr, i32, i64, i64, i64, ptr, ptr, ptr, ptr, ptr, ptr, ptr, ptr, ptr }
%struct.repository_format = type { i32, i32, ptr, i32, i32, i32, i32, i32, i32, i32, ptr, %struct.string_list, %struct.string_list }
%struct.string_list = type { ptr, i64, i64, i8, ptr }

@the_repository = external global ptr, align 8
@.str.22 = private unnamed_addr constant [7 x i8] c"config\00", align 1
@.str.25 = private unnamed_addr constant [3 x i8] c"%d\00", align 1
@.str.26 = private unnamed_addr constant [29 x i8] c"core.repositoryformatversion\00", align 1
@__const.initialize_repository_version.repo_version = private unnamed_addr constant %struct.strbuf { i64 0, i64 0, ptr @strbuf_slopbuf }, align 8
@.str.75 = private unnamed_addr constant [24 x i8] c"extensions.objectformat\00", align 1
@hash_algos = external constant [3 x %struct.git_hash_algo], align 16
@.str.76 = private unnamed_addr constant [22 x i8] c"extensions.refstorage\00", align 1
@__const.initialize_repository_version.config = private unnamed_addr constant %struct.strbuf { i64 0, i64 0, ptr @strbuf_slopbuf }, align 8

; Function Attrs: nounwind uwtable
define internal void @init_repository_format(ptr noundef %0) #0 {
  %2 = alloca ptr, align 8
  %3 = alloca %struct.repository_format, align 8
  store ptr %0, ptr %2, align 8, !tbaa !45
  call void @llvm.lifetime.start.p0(i64 136, ptr %3) #13
  call void @llvm.memset.p0.i64(ptr align 8 %3, i8 0, i64 136, i1 false)
  %4 = getelementptr inbounds { i32, i32, ptr, i32, i32, i32, i32, i32, i32, i32, [4 x i8], ptr, { ptr, i64, i64, i8, [7 x i8], ptr }, { ptr, i64, i64, i8, [7 x i8], ptr } }, ptr %3, i32 0, i32 0
  store i32 -1, ptr %4, align 8
  %5 = getelementptr inbounds { i32, i32, ptr, i32, i32, i32, i32, i32, i32, i32, [4 x i8], ptr, { ptr, i64, i64, i8, [7 x i8], ptr }, { ptr, i64, i64, i8, [7 x i8], ptr } }, ptr %3, i32 0, i32 5
  store i32 -1, ptr %5, align 8
  %6 = getelementptr inbounds { i32, i32, ptr, i32, i32, i32, i32, i32, i32, i32, [4 x i8], ptr, { ptr, i64, i64, i8, [7 x i8], ptr }, { ptr, i64, i64, i8, [7 x i8], ptr } }, ptr %3, i32 0, i32 6
  store i32 1, ptr %6, align 4
  %7 = getelementptr inbounds { i32, i32, ptr, i32, i32, i32, i32, i32, i32, i32, [4 x i8], ptr, { ptr, i64, i64, i8, [7 x i8], ptr }, { ptr, i64, i64, i8, [7 x i8], ptr } }, ptr %3, i32 0, i32 8
  store i32 1, ptr %7, align 4
  %8 = getelementptr inbounds { i32, i32, ptr, i32, i32, i32, i32, i32, i32, i32, [4 x i8], ptr, { ptr, i64, i64, i8, [7 x i8], ptr }, { ptr, i64, i64, i8, [7 x i8], ptr } }, ptr %3, i32 0, i32 12
  %9 = getelementptr inbounds { ptr, i64, i64, i8, [7 x i8], ptr }, ptr %8, i32 0, i32 3
  store i8 1, ptr %9, align 8
  %10 = getelementptr inbounds { i32, i32, ptr, i32, i32, i32, i32, i32, i32, i32, [4 x i8], ptr, { ptr, i64, i64, i8, [7 x i8], ptr }, { ptr, i64, i64, i8, [7 x i8], ptr } }, ptr %3, i32 0, i32 13
  %11 = getelementptr inbounds { ptr, i64, i64, i8, [7 x i8], ptr }, ptr %10, i32 0, i32 3
  store i8 1, ptr %11, align 8
  %12 = load ptr, ptr %2, align 8, !tbaa !45
  call void @llvm.memcpy.p0.p0.i64(ptr align 8 %12, ptr align 8 %3, i64 136, i1 false)
  call void @llvm.lifetime.end.p0(i64 136, ptr %3) #13
  ret void
}

; Function Attrs: nounwind uwtable
define dso_local void @clear_repository_format(ptr noundef %0) #0 {
  %2 = alloca ptr, align 8
  store ptr %0, ptr %2, align 8, !tbaa !45
  %3 = load ptr, ptr %2, align 8, !tbaa !45
  %4 = getelementptr inbounds nuw %struct.repository_format, ptr %3, i32 0, i32 11
  call void @string_list_clear(ptr noundef %4, i32 noundef 0)
  %5 = load ptr, ptr %2, align 8, !tbaa !45
  %6 = getelementptr inbounds nuw %struct.repository_format, ptr %5, i32 0, i32 12
  call void @string_list_clear(ptr noundef %6, i32 noundef 0)
  %7 = load ptr, ptr %2, align 8, !tbaa !45
  %8 = getelementptr inbounds nuw %struct.repository_format, ptr %7, i32 0, i32 10
  %9 = load ptr, ptr %8, align 8, !tbaa !51
  call void @free(ptr noundef %9) #13
  %10 = load ptr, ptr %2, align 8, !tbaa !45
  %11 = getelementptr inbounds nuw %struct.repository_format, ptr %10, i32 0, i32 2
  %12 = load ptr, ptr %11, align 8, !tbaa !52
  call void @free(ptr noundef %12) #13
  %13 = load ptr, ptr %2, align 8, !tbaa !45
  call void @init_repository_format(ptr noundef %13)
  ret void
}

; Function Attrs: inlinehint nounwind uwtable
define internal i32 @git_config_set_gently(ptr noundef %0, ptr noundef %1) #2 {
  %3 = alloca ptr, align 8
  %4 = alloca ptr, align 8
  store ptr %0, ptr %3, align 8, !tbaa !4
  store ptr %1, ptr %4, align 8, !tbaa !4
  %5 = load ptr, ptr @the_repository, align 8, !tbaa !14
  %6 = load ptr, ptr %3, align 8, !tbaa !4
  %7 = load ptr, ptr %4, align 8, !tbaa !4
  %8 = call i32 @repo_config_set_gently(ptr noundef %5, ptr noundef %6, ptr noundef %7)
  ret i32 %8
}

; Function Attrs: inlinehint nounwind uwtable
define internal void @git_config_set(ptr noundef %0, ptr noundef %1) #2 {
  %3 = alloca ptr, align 8
  %4 = alloca ptr, align 8
  store ptr %0, ptr %3, align 8, !tbaa !4
  store ptr %1, ptr %4, align 8, !tbaa !4
  %5 = load ptr, ptr @the_repository, align 8, !tbaa !14
  %6 = load ptr, ptr %3, align 8, !tbaa !4
  %7 = load ptr, ptr %4, align 8, !tbaa !4
  call void @repo_config_set(ptr noundef %5, ptr noundef %6, ptr noundef %7)
  ret void
}

; Function Attrs: nounwind uwtable
define dso_local void @initialize_repository_version(i32 noundef %0, i32 noundef %1, i32 noundef %2) #0 {
  %4 = alloca i32, align 4
  %5 = alloca i32, align 4
  %6 = alloca i32, align 4
  %7 = alloca %struct.strbuf, align 8
  %8 = alloca i32, align 4
  %9 = alloca %struct.strbuf, align 8
  %10 = alloca %struct.repository_format, align 8
  store i32 %0, ptr %4, align 4, !tbaa !9
  store i32 %1, ptr %5, align 4, !tbaa !9
  store i32 %2, ptr %6, align 4, !tbaa !9
  call void @llvm.lifetime.start.p0(i64 24, ptr %7) #13
  call void @llvm.memcpy.p0.p0.i64(ptr align 8 %7, ptr align 8 @__const.initialize_repository_version.repo_version, i64 24, i1 false)
  call void @llvm.lifetime.start.p0(i64 4, ptr %8) #13
  store i32 0, ptr %8, align 4, !tbaa !9
  %11 = load i32, ptr %4, align 4, !tbaa !9
  %12 = icmp ne i32 %11, 1
  br i1 %12, label %16, label %13

13:                                               ; preds = %3
  %14 = load i32, ptr %5, align 4, !tbaa !9
  %15 = icmp ne i32 %14, 1
  br i1 %15, label %16, label %17

16:                                               ; preds = %13, %3
  store i32 1, ptr %8, align 4, !tbaa !9
  br label %17

17:                                               ; preds = %16, %13
  %18 = load i32, ptr %4, align 4, !tbaa !9
  %19 = icmp ne i32 %18, 1
  br i1 %19, label %20, label %29

20:                                               ; preds = %17
  %21 = load i32, ptr %4, align 4, !tbaa !9
  %22 = icmp ne i32 %21, 0
  br i1 %22, label %23, label %29

23:                                               ; preds = %20
  %24 = load i32, ptr %4, align 4, !tbaa !9
  %25 = sext i32 %24 to i64
  %26 = getelementptr inbounds [3 x %struct.git_hash_algo], ptr @hash_algos, i64 0, i64 %25
  %27 = getelementptr inbounds nuw %struct.git_hash_algo, ptr %26, i32 0, i32 0
  %28 = load ptr, ptr %27, align 16, !tbaa !113
  call void @git_config_set(ptr noundef @.str.75, ptr noundef %28)
  br label %35

29:                                               ; preds = %20, %17
  %30 = load i32, ptr %6, align 4, !tbaa !9
  %31 = icmp ne i32 %30, 0
  br i1 %31, label %32, label %34

32:                                               ; preds = %29
  %33 = call i32 @git_config_set_gently(ptr noundef @.str.75, ptr noundef null)
  br label %34

34:                                               ; preds = %32, %29
  br label %35

35:                                               ; preds = %34, %23
  %36 = load i32, ptr %5, align 4, !tbaa !9
  %37 = icmp ne i32 %36, 1
  br i1 %37, label %38, label %41

38:                                               ; preds = %35
  %39 = load i32, ptr %5, align 4, !tbaa !9
  %40 = call ptr @ref_storage_format_to_name(i32 noundef %39)
  call void @git_config_set(ptr noundef @.str.76, ptr noundef %40)
  br label %47

41:                                               ; preds = %35
  %42 = load i32, ptr %6, align 4, !tbaa !9
  %43 = icmp ne i32 %42, 0
  br i1 %43, label %44, label %46

44:                                               ; preds = %41
  %45 = call i32 @git_config_set_gently(ptr noundef @.str.76, ptr noundef null)
  br label %46

46:                                               ; preds = %44, %41
  br label %47

47:                                               ; preds = %46, %38
  %48 = load i32, ptr %6, align 4, !tbaa !9
  %49 = icmp ne i32 %48, 0
  br i1 %49, label %50, label %69

50:                                               ; preds = %47
  call void @llvm.lifetime.start.p0(i64 24, ptr %9) #13
  call void @llvm.memcpy.p0.p0.i64(ptr align 8 %9, ptr align 8 @__const.initialize_repository_version.config, i64 24, i1 false)
  call void @llvm.lifetime.start.p0(i64 136, ptr %10) #13
  call void @llvm.memset.p0.i64(ptr align 8 %10, i8 0, i64 136, i1 false)
  %51 = getelementptr inbounds { i32, i32, ptr, i32, i32, i32, i32, i32, i32, i32, [4 x i8], ptr, { ptr, i64, i64, i8, [7 x i8], ptr }, { ptr, i64, i64, i8, [7 x i8], ptr } }, ptr %10, i32 0, i32 0
  store i32 -1, ptr %51, align 8
  %52 = getelementptr inbounds { i32, i32, ptr, i32, i32, i32, i32, i32, i32, i32, [4 x i8], ptr, { ptr, i64, i64, i8, [7 x i8], ptr }, { ptr, i64, i64, i8, [7 x i8], ptr } }, ptr %10, i32 0, i32 5
  store i32 -1, ptr %52, align 8
  %53 = getelementptr inbounds { i32, i32, ptr, i32, i32, i32, i32, i32, i32, i32, [4 x i8], ptr, { ptr, i64, i64, i8, [7 x i8], ptr }, { ptr, i64, i64, i8, [7 x i8], ptr } }, ptr %10, i32 0, i32 6
  store i32 1, ptr %53, align 4
  %54 = getelementptr inbounds { i32, i32, ptr, i32, i32, i32, i32, i32, i32, i32, [4 x i8], ptr, { ptr, i64, i64, i8, [7 x i8], ptr }, { ptr, i64, i64, i8, [7 x i8], ptr } }, ptr %10, i32 0, i32 8
  store i32 1, ptr %54, align 4
  %55 = getelementptr inbounds { i32, i32, ptr, i32, i32, i32, i32, i32, i32, i32, [4 x i8], ptr, { ptr, i64, i64, i8, [7 x i8], ptr }, { ptr, i64, i64, i8, [7 x i8], ptr } }, ptr %10, i32 0, i32 12
  %56 = getelementptr inbounds { ptr, i64, i64, i8, [7 x i8], ptr }, ptr %55, i32 0, i32 3
  store i8 1, ptr %56, align 8
  %57 = getelementptr inbounds { i32, i32, ptr, i32, i32, i32, i32, i32, i32, i32, [4 x i8], ptr, { ptr, i64, i64, i8, [7 x i8], ptr }, { ptr, i64, i64, i8, [7 x i8], ptr } }, ptr %10, i32 0, i32 13
  %58 = getelementptr inbounds { ptr, i64, i64, i8, [7 x i8], ptr }, ptr %57, i32 0, i32 3
  store i8 1, ptr %58, align 8
  %59 = load ptr, ptr @the_repository, align 8, !tbaa !14
  call void (ptr, ptr, ptr, ...) @strbuf_git_common_path(ptr noundef %9, ptr noundef %59, ptr noundef @.str.22)
  %60 = getelementptr inbounds nuw %struct.strbuf, ptr %9, i32 0, i32 2
  %61 = load ptr, ptr %60, align 8, !tbaa !18
  %62 = call i32 @read_repository_format(ptr noundef %10, ptr noundef %61)
  %63 = getelementptr inbounds nuw %struct.repository_format, ptr %10, i32 0, i32 12
  %64 = getelementptr inbounds nuw %struct.string_list, ptr %63, i32 0, i32 1
  %65 = load i64, ptr %64, align 8, !tbaa !48
  %66 = icmp ne i64 %65, 0
  br i1 %66, label %67, label %68

67:                                               ; preds = %50
  store i32 1, ptr %8, align 4, !tbaa !9
  br label %68

68:                                               ; preds = %67, %50
  call void @strbuf_release(ptr noundef %9)
  call void @clear_repository_format(ptr noundef %10)
  call void @llvm.lifetime.end.p0(i64 136, ptr %10) #13
  call void @llvm.lifetime.end.p0(i64 24, ptr %9) #13
  br label %69

69:                                               ; preds = %68, %47
  %70 = load i32, ptr %8, align 4, !tbaa !9
  call void (ptr, ptr, ...) @strbuf_addf(ptr noundef %7, ptr noundef @.str.25, i32 noundef %70)
  %71 = getelementptr inbounds nuw %struct.strbuf, ptr %7, i32 0, i32 2
  %72 = load ptr, ptr %71, align 8, !tbaa !18
  call void @git_config_set(ptr noundef @.str.26, ptr noundef %72)
  call void @strbuf_release(ptr noundef %7)
  call void @llvm.lifetime.end.p0(i64 4, ptr %8) #13
  call void @llvm.lifetime.end.p0(i64 24, ptr %7) #13
  ret void
}