; Function Attrs: nounwind uwtable
define dso_local void @initialize_repository_version(i32 noundef %0, i32 noundef %1, i32 noundef %2) local_unnamed_addr #0 {
  %4 = alloca %struct.strbuf, align 8
  %5 = alloca %struct.strbuf, align 8
  %6 = alloca %struct.repository_format, align 8
  call void @llvm.lifetime.start.p0(i64 24, ptr nonnull %4) #25
  call void @llvm.memcpy.p0.p0.i64(ptr noundef nonnull align 8 dereferenceable(24) %4, ptr noundef nonnull align 8 dereferenceable(24) @__const.create_object_directory.path, i64 24, i1 false)
  %7 = icmp ne i32 %0, 1
  %8 = icmp ne i32 %1, 1
  %or.cond = or i1 %7, %8
  %spec.store.select = zext i1 %or.cond to i32
  %or.cond3 = icmp ugt i32 %0, 1
  br i1 %or.cond3, label %9, label %14

9:                                                ; preds = %3
  %10 = sext i32 %0 to i64
  %11 = getelementptr inbounds [3 x %struct.git_hash_algo], ptr @hash_algos, i64 0, i64 %10
  %12 = load ptr, ptr %11, align 16, !tbaa !50
  %13 = load ptr, ptr @the_repository, align 8, !tbaa !9
  tail call void @repo_config_set(ptr noundef %13, ptr noundef nonnull @.str.75, ptr noundef %12) #25
  br label %18

14:                                               ; preds = %3
  %.not = icmp eq i32 %2, 0
  br i1 %.not, label %.thread, label %15

15:                                               ; preds = %14
  %16 = load ptr, ptr @the_repository, align 8, !tbaa !9
  %17 = tail call i32 @repo_config_set_gently(ptr noundef %16, ptr noundef nonnull @.str.75, ptr noundef null) #25
  br label %18

18:                                               ; preds = %15, %9
  br i1 %8, label %22, label %19

.thread:                                          ; preds = %14
  br i1 %8, label %22, label %.thread19

19:                                               ; preds = %18
  %cond = icmp eq i32 %2, 0
  br i1 %cond, label %.thread19, label %.thread21

.thread21:                                        ; preds = %19
  %20 = load ptr, ptr @the_repository, align 8, !tbaa !9
  %21 = tail call i32 @repo_config_set_gently(ptr noundef %20, ptr noundef nonnull @.str.76, ptr noundef null) #25
  br label %25

22:                                               ; preds = %18, %.thread
  %23 = tail call ptr @ref_storage_format_to_name(i32 noundef %1) #25
  %24 = load ptr, ptr @the_repository, align 8, !tbaa !9
  tail call void @repo_config_set(ptr noundef %24, ptr noundef nonnull @.str.76, ptr noundef %23) #25
  %.not17 = icmp eq i32 %2, 0
  br i1 %.not17, label %.thread19, label %25

25:                                               ; preds = %.thread21, %22
  call void @llvm.lifetime.start.p0(i64 24, ptr nonnull %5) #25
  call void @llvm.memcpy.p0.p0.i64(ptr noundef nonnull align 8 dereferenceable(24) %5, ptr noundef nonnull align 8 dereferenceable(24) @__const.create_object_directory.path, i64 24, i1 false)
  call void @llvm.lifetime.start.p0(i64 136, ptr nonnull %6) #25
  call void @llvm.memset.p0.i64(ptr noundef nonnull align 8 dereferenceable(136) %6, i8 0, i64 136, i1 false)
  store i32 -1, ptr %6, align 8
  %26 = getelementptr inbounds nuw i8, ptr %6, i64 24
  store i32 -1, ptr %26, align 8
  %27 = getelementptr inbounds nuw i8, ptr %6, i64 28
  store i32 1, ptr %27, align 4
  %28 = getelementptr inbounds nuw i8, ptr %6, i64 36
  store i32 1, ptr %28, align 4
  %29 = getelementptr inbounds nuw i8, ptr %6, i64 80
  store i8 1, ptr %29, align 8
  %30 = getelementptr inbounds nuw i8, ptr %6, i64 120
  store i8 1, ptr %30, align 8
  %31 = load ptr, ptr @the_repository, align 8, !tbaa !9
  call void (ptr, ptr, ptr, ...) @strbuf_git_common_path(ptr noundef nonnull %5, ptr noundef %31, ptr noundef nonnull @.str.22) #25
  %32 = getelementptr inbounds nuw i8, ptr %5, i64 16
  %33 = load ptr, ptr %32, align 8, !tbaa !14
  %34 = call i32 @read_repository_format(ptr noundef nonnull %6, ptr noundef %33)
  %35 = getelementptr inbounds nuw i8, ptr %6, i64 104
  %36 = load i64, ptr %35, align 8, !tbaa !40
  %.not18 = icmp eq i64 %36, 0
  %spec.select = select i1 %.not18, i32 %spec.store.select, i32 1
  call void @strbuf_release(ptr noundef nonnull %5) #25
  %37 = getelementptr inbounds nuw i8, ptr %6, i64 56
  call void @string_list_clear(ptr noundef nonnull %37, i32 noundef 0) #25
  %38 = getelementptr inbounds nuw i8, ptr %6, i64 96
  call void @string_list_clear(ptr noundef nonnull %38, i32 noundef 0) #25
  %39 = getelementptr inbounds nuw i8, ptr %6, i64 48
  %40 = load ptr, ptr %39, align 8, !tbaa !36
  call void @free(ptr noundef %40) #25
  %41 = getelementptr inbounds nuw i8, ptr %6, i64 8
  %42 = load ptr, ptr %41, align 8, !tbaa !37
  call void @free(ptr noundef %42) #25
  call void @llvm.lifetime.end.p0(i64 136, ptr nonnull %6) #25
  call void @llvm.lifetime.end.p0(i64 24, ptr nonnull %5) #25
  br label %.thread19

.thread19:                                        ; preds = %.thread, %19, %25, %22
  %.0 = phi i32 [ %spec.select, %25 ], [ %spec.store.select, %22 ], [ %spec.store.select, %19 ], [ %spec.store.select, %.thread ]
  call void (ptr, ptr, ...) @strbuf_addf(ptr noundef nonnull %4, ptr noundef nonnull @.str.25, i32 noundef %.0) #25
  %43 = getelementptr inbounds nuw i8, ptr %4, i64 16
  %44 = load ptr, ptr %43, align 8, !tbaa !14
  %45 = load ptr, ptr @the_repository, align 8, !tbaa !9
  call void @repo_config_set(ptr noundef %45, ptr noundef nonnull @.str.26, ptr noundef %44) #25
  call void @strbuf_release(ptr noundef nonnull %4) #25
  call void @llvm.lifetime.end.p0(i64 24, ptr nonnull %4) #25
  ret void
}